target datalayout = "e-m:e-p270:32:32-p271:32:32-p272:64:64-i64:64-i128:128-f80:128-n8:16:32:64-S128"
target triple = "x86_64-pc-linux-gnu"

%struct.rb_data_type_struct = type { ptr, %struct.anon, ptr, ptr, i64 }
%struct.anon = type { ptr, ptr, ptr, ptr, [1 x ptr] }

@ossl_x509_type = internal constant %struct.rb_data_type_struct { ptr @.str.34, %struct.anon { ptr null, ptr @ossl_x509_free, ptr null, ptr null, [1 x ptr] zeroinitializer }, ptr null, ptr null, i64 33 }, align 8
@eX509CertError = internal global i64 0, align 8
@rb_eRuntimeError = external global i64, align 8
@.str = private unnamed_addr constant [25 x i8] c"CERT wasn't initialized!\00", align 1

; Function Attrs: nounwind sspstrong uwtable
define internal i64 @ossl_x509_get_signature_algorithm(i64 noundef %0) #0 {
  %2 = alloca i64, align 8
  %3 = alloca ptr, align 8
  %4 = alloca ptr, align 8
  %5 = alloca ptr, align 8
  %6 = alloca i64, align 8
  store i64 %0, ptr %2, align 8, !tbaa !11
  call void @llvm.lifetime.start.p0(i64 8, ptr %3) #15
  call void @llvm.lifetime.start.p0(i64 8, ptr %4) #15
  call void @llvm.lifetime.start.p0(i64 8, ptr %5) #15
  call void @llvm.lifetime.start.p0(i64 8, ptr %6) #15
  br label %7

7:                                                ; preds = %1
  %8 = load i64, ptr %2, align 8, !tbaa !11
  %9 = call ptr @rb_check_typeddata(i64 noundef %8, ptr noundef @ossl_x509_type)
  store ptr %9, ptr %3, align 8, !tbaa !6
  %10 = load ptr, ptr %3, align 8, !tbaa !6
  %11 = icmp ne ptr %10, null
  br i1 %11, label %14, label %12

12:                                               ; preds = %7
  %13 = load i64, ptr @rb_eRuntimeError, align 8, !tbaa !11
  call void (i64, ptr, ...) @ossl_raise(i64 noundef %13, ptr noundef @.str) #16
  unreachable

14:                                               ; preds = %7
  br label %15

15:                                               ; preds = %14
  br label %16

16:                                               ; preds = %15
  %17 = call ptr @BIO_s_mem()
  %18 = call ptr @BIO_new(ptr noundef %17)
  store ptr %18, ptr %4, align 8, !tbaa !17
  %19 = load ptr, ptr %4, align 8, !tbaa !17
  %20 = icmp ne ptr %19, null
  br i1 %20, label %23, label %21

21:                                               ; preds = %16
  %22 = load i64, ptr @eX509CertError, align 8, !tbaa !11
  call void (i64, ptr, ...) @ossl_raise(i64 noundef %22, ptr noundef null) #16
  unreachable

23:                                               ; preds = %16
  %24 = load ptr, ptr %3, align 8, !tbaa !6
  %25 = call ptr @X509_get0_tbs_sigalg(ptr noundef %24)
  call void @X509_ALGOR_get0(ptr noundef %5, ptr noundef null, ptr noundef null, ptr noundef %25)
  %26 = load ptr, ptr %4, align 8, !tbaa !17
  %27 = load ptr, ptr %5, align 8, !tbaa !27
  %28 = call i32 @i2a_ASN1_OBJECT(ptr noundef %26, ptr noundef %27)
  %29 = icmp ne i32 %28, 0
  br i1 %29, label %34, label %30

30:                                               ; preds = %23
  %31 = load ptr, ptr %4, align 8, !tbaa !17
  %32 = call i32 @BIO_free(ptr noundef %31)
  %33 = load i64, ptr @eX509CertError, align 8, !tbaa !11
  call void (i64, ptr, ...) @ossl_raise(i64 noundef %33, ptr noundef null) #16
  unreachable

34:                                               ; preds = %23
  %35 = load ptr, ptr %4, align 8, !tbaa !17
  %36 = call i64 @ossl_membio2str(ptr noundef %35)
  store i64 %36, ptr %6, align 8, !tbaa !11
  %37 = load i64, ptr %6, align 8, !tbaa !11
  call void @llvm.lifetime.end.p0(i64 8, ptr %6) #15
  call void @llvm.lifetime.end.p0(i64 8, ptr %5) #15
  call void @llvm.lifetime.end.p0(i64 8, ptr %4) #15
  call void @llvm.lifetime.end.p0(i64 8, ptr %3) #15
  ret i64 %37
}