; Function Attrs: nounwind sspstrong uwtable
define internal i64 @ossl_x509_get_signature_algorithm(i64 noundef %0) #0 {
  %2 = alloca ptr, align 8
  call void @llvm.lifetime.start.p0(i64 8, ptr nonnull %2) #5
  %3 = tail call ptr @rb_check_typeddata(i64 noundef %0, ptr noundef nonnull @ossl_x509_type) #5
  %.not = icmp eq ptr %3, null
  br i1 %.not, label %4, label %6

4:                                                ; preds = %1
  %5 = load i64, ptr @rb_eRuntimeError, align 8, !tbaa !6
  tail call void (i64, ptr, ...) @ossl_raise(i64 noundef %5, ptr noundef nonnull @.str) #6
  unreachable

6:                                                ; preds = %1
  %7 = tail call ptr @BIO_s_mem() #5
  %8 = tail call ptr @BIO_new(ptr noundef %7) #5
  %.not8 = icmp eq ptr %8, null
  br i1 %.not8, label %9, label %11

9:                                                ; preds = %6
  %10 = load i64, ptr @eX509CertError, align 8, !tbaa !6
  tail call void (i64, ptr, ...) @ossl_raise(i64 noundef %10, ptr noundef null) #6
  unreachable

11:                                               ; preds = %6
  %12 = tail call ptr @X509_get0_tbs_sigalg(ptr noundef nonnull %3) #5
  call void @X509_ALGOR_get0(ptr noundef nonnull %2, ptr noundef null, ptr noundef null, ptr noundef %12) #5
  %13 = load ptr, ptr %2, align 8, !tbaa !30
  %14 = call i32 @i2a_ASN1_OBJECT(ptr noundef nonnull %8, ptr noundef %13) #5
  %.not9 = icmp eq i32 %14, 0
  br i1 %.not9, label %15, label %18

15:                                               ; preds = %11
  %16 = call i32 @BIO_free(ptr noundef nonnull %8) #5
  %17 = load i64, ptr @eX509CertError, align 8, !tbaa !6
  call void (i64, ptr, ...) @ossl_raise(i64 noundef %17, ptr noundef null) #6
  unreachable

18:                                               ; preds = %11
  %19 = call i64 @ossl_membio2str(ptr noundef nonnull %8) #5
  call void @llvm.lifetime.end.p0(i64 8, ptr nonnull %2) #5
  ret i64 %19
}